; ModuleID = '43/919.c'
source_filename = "43/919.c"
target datalayout = "e-m:e-p270:32:32-p271:32:32-p272:64:64-i64:64-f80:128-n8:16:32:64-S128"
target triple = "x86_64-pc-linux-gnu"

@.str = private unnamed_addr constant [3 x i8] c"%d\00", align 1
@.str.1 = private unnamed_addr constant [7 x i8] c"%d %d\0A\00", align 1

; Function Attrs: noinline nounwind uwtable
define dso_local i32 @z(i32 %0) #0 {
  %2 = alloca i32, align 4
  %3 = alloca i32, align 4
  %4 = alloca i32, align 4
  %5 = alloca i32, align 4
  %6 = alloca i32, align 4
  store i32 %0, i32* %3, align 4
  store i32 0, i32* %5, align 4
  %7 = load i32, i32* %3, align 4
  %8 = sitofp i32 %7 to double
  %9 = call double @sqrt(double %8) #3
  %10 = fptosi double %9 to i32
  %11 = add nsw i32 %10, 1
  store i32 %11, i32* %6, align 4
  store i32 3, i32* %4, align 4
  br label %12

12:                                               ; preds = %25, %1
  %13 = load i32, i32* %4, align 4
  %14 = load i32, i32* %6, align 4
  %15 = icmp sle i32 %13, %14
  br i1 %15, label %16, label %28

16:                                               ; preds = %12
  %17 = load i32, i32* %3, align 4
  %18 = load i32, i32* %4, align 4
  %19 = srem i32 %17, %18
  %20 = icmp eq i32 %19, 0
  br i1 %20, label %21, label %24

21:                                               ; preds = %16
  %22 = load i32, i32* %5, align 4
  %23 = add nsw i32 %22, 1
  store i32 %23, i32* %5, align 4
  br label %28

24:                                               ; preds = %16
  br label %25

25:                                               ; preds = %24
  %26 = load i32, i32* %4, align 4
  %27 = add nsw i32 %26, 2
  store i32 %27, i32* %4, align 4
  br label %12

28:                                               ; preds = %21, %12
  %29 = load i32, i32* %5, align 4
  %30 = icmp eq i32 %29, 0
  br i1 %30, label %31, label %32

31:                                               ; preds = %28
  store i32 1, i32* %2, align 4
  br label %33

32:                                               ; preds = %28
  store i32 0, i32* %2, align 4
  br label %33

33:                                               ; preds = %32, %31
  %34 = load i32, i32* %2, align 4
  ret i32 %34
}

; Function Attrs: nounwind
declare dso_local double @sqrt(double) #1

; Function Attrs: noinline nounwind uwtable
define dso_local i32 @main() #0 {
  %1 = alloca i32, align 4
  %2 = alloca i32, align 4
  %3 = alloca i32, align 4
  %4 = alloca i32, align 4
  store i32 0, i32* %1, align 4
  %5 = call i32 (i8*, ...) @__isoc99_scanf(i8* getelementptr inbounds ([3 x i8], [3 x i8]* @.str, i64 0, i64 0), i32* %2)
  store i32 3, i32* %3, align 4
  br label %6

6:                                                ; preds = %28, %0
  %7 = load i32, i32* %3, align 4
  %8 = load i32, i32* %2, align 4
  %9 = sdiv i32 %8, 2
  %10 = icmp sle i32 %7, %9
  br i1 %10, label %11, label %31

11:                                               ; preds = %6
  %12 = load i32, i32* %3, align 4
  %13 = call i32 @z(i32 %12)
  %14 = icmp ne i32 %13, 0
  br i1 %14, label %15, label %27

15:                                               ; preds = %11
  %16 = load i32, i32* %2, align 4
  %17 = load i32, i32* %3, align 4
  %18 = sub nsw i32 %16, %17
  store i32 %18, i32* %4, align 4
  %19 = load i32, i32* %4, align 4
  %20 = call i32 @z(i32 %19)
  %21 = icmp ne i32 %20, 0
  br i1 %21, label %22, label %26

22:                                               ; preds = %15
  %23 = load i32, i32* %3, align 4
  %24 = load i32, i32* %4, align 4
  %25 = call i32 (i8*, ...) @printf(i8* getelementptr inbounds ([7 x i8], [7 x i8]* @.str.1, i64 0, i64 0), i32 %23, i32 %24)
  br label %26

26:                                               ; preds = %22, %15
  br label %27

27:                                               ; preds = %26, %11
  br label %28

28:                                               ; preds = %27
  %29 = load i32, i32* %3, align 4
  %30 = add nsw i32 %29, 2
  store i32 %30, i32* %3, align 4
  br label %6

31:                                               ; preds = %6
  ret i32 0
}

declare dso_local i32 @__isoc99_scanf(i8*, ...) #2

declare dso_local i32 @printf(i8*, ...) #2


!llvm.module.flags = !{!0}
!llvm.ident = !{!1}

!0 = !{i32 1, !"wchar_size", i32 4}
!1 = !{!"clang version 10.0.0-4ubuntu1 "}
