; ModuleID = 'source-C-CXX/42/919.c'
source_filename = "source-C-CXX/42/919.c"
target datalayout = "e-m:e-p270:32:32-p271:32:32-p272:64:64-i64:64-f80:128-n8:16:32:64-S128"
target triple = "x86_64-pc-linux-gnu"

@.str = private unnamed_addr constant [3 x i8] c"%d\00", align 1
@.str.1 = private unnamed_addr constant [7 x i8] c"%d %d\0A\00", align 1

; Function Attrs: nofree nounwind sspstrong uwtable
define dso_local i32 @z(i32 %0) local_unnamed_addr #0 {
  %2 = sitofp i32 %0 to double
  %3 = tail call double @sqrt(double %2) #4
  %4 = fptosi double %3 to i32
  %5 = icmp slt i32 %4, 2
  br i1 %5, label %17, label %6

6:                                                ; preds = %1, %6
  %7 = phi i32 [ %11, %6 ], [ 3, %1 ]
  %8 = srem i32 %0, %7
  %9 = icmp eq i32 %8, 0
  %10 = xor i1 %9, true
  %11 = add nuw nsw i32 %7, 2
  %12 = icmp slt i32 %7, %4
  %13 = select i1 %10, i1 %12, i1 false
  br i1 %13, label %6, label %14, !llvm.loop !5

14:                                               ; preds = %6
  %15 = xor i1 %9, true
  %16 = zext i1 %15 to i32
  br label %17

17:                                               ; preds = %14, %1
  %18 = phi i32 [ 1, %1 ], [ %16, %14 ]
  ret i32 %18
}

; Function Attrs: argmemonly mustprogress nofree nosync nounwind willreturn
declare void @llvm.lifetime.start.p0i8(i64 immarg, i8* nocapture) #1

; Function Attrs: mustprogress nofree nounwind willreturn
declare double @sqrt(double) local_unnamed_addr #2

; Function Attrs: argmemonly mustprogress nofree nosync nounwind willreturn
declare void @llvm.lifetime.end.p0i8(i64 immarg, i8* nocapture) #1

; Function Attrs: nofree nounwind sspstrong uwtable
define dso_local i32 @main() local_unnamed_addr #0 {
  %1 = alloca i32, align 4
  %2 = bitcast i32* %1 to i8*
  call void @llvm.lifetime.start.p0i8(i64 4, i8* nonnull %2) #4
  %3 = call i32 (i8*, ...) @__isoc99_scanf(i8* getelementptr inbounds ([3 x i8], [3 x i8]* @.str, i64 0, i64 0), i32* nonnull %1)
  %4 = load i32, i32* %1, align 4, !tbaa !7
  %5 = icmp slt i32 %4, 6
  br i1 %5, label %42, label %6

6:                                                ; preds = %0, %37
  %7 = phi i32 [ %38, %37 ], [ 3, %0 ]
  %8 = sitofp i32 %7 to double
  %9 = call double @sqrt(double %8) #4
  %10 = fptosi double %9 to i32
  %11 = icmp slt i32 %10, 2
  br i1 %11, label %20, label %12

12:                                               ; preds = %6, %12
  %13 = phi i32 [ %16, %12 ], [ 3, %6 ]
  %14 = urem i32 %7, %13
  %15 = icmp ne i32 %14, 0
  %16 = add nuw nsw i32 %13, 2
  %17 = icmp slt i32 %13, %10
  %18 = select i1 %15, i1 %17, i1 false
  br i1 %18, label %12, label %19, !llvm.loop !5

19:                                               ; preds = %12
  br i1 %15, label %20, label %37

20:                                               ; preds = %6, %19
  %21 = load i32, i32* %1, align 4, !tbaa !7
  %22 = sub nsw i32 %21, %7
  %23 = sitofp i32 %22 to double
  %24 = call double @sqrt(double %23) #4
  %25 = fptosi double %24 to i32
  %26 = icmp slt i32 %25, 2
  br i1 %26, label %35, label %27

27:                                               ; preds = %20, %27
  %28 = phi i32 [ %31, %27 ], [ 3, %20 ]
  %29 = srem i32 %22, %28
  %30 = icmp ne i32 %29, 0
  %31 = add nuw nsw i32 %28, 2
  %32 = icmp slt i32 %28, %25
  %33 = select i1 %30, i1 %32, i1 false
  br i1 %33, label %27, label %34, !llvm.loop !5

34:                                               ; preds = %27
  br i1 %30, label %35, label %37

35:                                               ; preds = %20, %34
  %36 = call i32 (i8*, ...) @printf(i8* nonnull dereferenceable(1) getelementptr inbounds ([7 x i8], [7 x i8]* @.str.1, i64 0, i64 0), i32 %7, i32 %22)
  br label %37

37:                                               ; preds = %19, %35, %34
  %38 = add nuw nsw i32 %7, 2
  %39 = load i32, i32* %1, align 4, !tbaa !7
  %40 = sdiv i32 %39, 2
  %41 = icmp sgt i32 %38, %40
  br i1 %41, label %42, label %6, !llvm.loop !11

42:                                               ; preds = %37, %0
  call void @llvm.lifetime.end.p0i8(i64 4, i8* nonnull %2) #4
  ret i32 0
}

; Function Attrs: nofree nounwind
declare noundef i32 @__isoc99_scanf(i8* nocapture noundef readonly, ...) local_unnamed_addr #3

; Function Attrs: nofree nounwind
declare noundef i32 @printf(i8* nocapture noundef readonly, ...) local_unnamed_addr #3


!llvm.module.flags = !{!0, !1, !2, !3}
!llvm.ident = !{!4}

!0 = !{i32 1, !"wchar_size", i32 4}
!1 = !{i32 7, !"PIC Level", i32 2}
!2 = !{i32 7, !"PIE Level", i32 2}
!3 = !{i32 7, !"uwtable", i32 1}
!4 = !{!"clang version 13.0.0"}
!5 = distinct !{!5, !6}
!6 = !{!"llvm.loop.mustprogress"}
!7 = !{!8, !8, i64 0}
!8 = !{!"int", !9, i64 0}
!9 = !{!"omnipotent char", !10, i64 0}
!10 = !{!"Simple C/C++ TBAA"}
!11 = distinct !{!11, !6}
